target datalayout = "e-m:e-p270:32:32-p271:32:32-p272:64:64-i64:64-i128:128-f80:128-n8:16:32:64-S128"
target triple = "x86_64-pc-linux-gnu"

%class.RawRead = type { %class.Array, ptr, i64, i64, ptr }
%class.Array = type { ptr, i64, i64, i64 }

; Function Attrs: inlinehint mustprogress nounwind uwtable
define linkonce_odr noundef nonnull align 1 dereferenceable(1) ptr @_ZNK5ArrayIhEixEm(ptr noundef nonnull align 8 dereferenceable(32) %0, i64 noundef %1) #3 comdat align 2 {
  %3 = alloca ptr, align 8
  %4 = alloca i64, align 8
  store ptr %0, ptr %3, align 8, !tbaa !15
  store i64 %1, ptr %4, align 8, !tbaa !23
  %5 = load ptr, ptr %3, align 8
  %6 = getelementptr inbounds nuw %class.Array, ptr %5, i32 0, i32 0
  %7 = load ptr, ptr %6, align 8, !tbaa !20
  %8 = load i64, ptr %4, align 8, !tbaa !23
  %9 = getelementptr inbounds nuw i8, ptr %7, i64 %8
  ret ptr %9
}

; Function Attrs: mustprogress uwtable
define noundef i64 @_ZN7RawRead4GetBEPvm(ptr noundef nonnull align 8 dereferenceable(64) %0, ptr noundef %1, i64 noundef %2) #0 align 2 {
  %4 = alloca ptr, align 8
  %5 = alloca ptr, align 8
  %6 = alloca i64, align 8
  %7 = alloca ptr, align 8
  %8 = alloca i64, align 8
  store ptr %0, ptr %4, align 8, !tbaa !3
  store ptr %1, ptr %5, align 8, !tbaa !37
  store i64 %2, ptr %6, align 8, !tbaa !23
  %9 = load ptr, ptr %4, align 8
  call void @llvm.lifetime.start.p0(i64 8, ptr %7) #9
  %10 = load ptr, ptr %5, align 8, !tbaa !37
  store ptr %10, ptr %7, align 8, !tbaa !28
  call void @llvm.lifetime.start.p0(i64 8, ptr %8) #9
  %11 = getelementptr inbounds nuw %class.RawRead, ptr %9, i32 0, i32 2
  %12 = load i64, ptr %11, align 8, !tbaa !18
  %13 = getelementptr inbounds nuw %class.RawRead, ptr %9, i32 0, i32 3
  %14 = load i64, ptr %13, align 8, !tbaa !17
  %15 = sub i64 %12, %14
  %16 = load i64, ptr %6, align 8, !tbaa !23
  %17 = icmp ult i64 %15, %16
  br i1 %17, label %18, label %24

18:                                               ; preds = %3
  %19 = getelementptr inbounds nuw %class.RawRead, ptr %9, i32 0, i32 2
  %20 = load i64, ptr %19, align 8, !tbaa !18
  %21 = getelementptr inbounds nuw %class.RawRead, ptr %9, i32 0, i32 3
  %22 = load i64, ptr %21, align 8, !tbaa !17
  %23 = sub i64 %20, %22
  br label %26

24:                                               ; preds = %3
  %25 = load i64, ptr %6, align 8, !tbaa !23
  br label %26

26:                                               ; preds = %24, %18
  %27 = phi i64 [ %23, %18 ], [ %25, %24 ]
  store i64 %27, ptr %8, align 8, !tbaa !23
  %28 = load i64, ptr %8, align 8, !tbaa !23
  %29 = icmp ugt i64 %28, 0
  br i1 %29, label %30, label %37

30:                                               ; preds = %26
  %31 = load ptr, ptr %7, align 8, !tbaa !28
  %32 = getelementptr inbounds nuw %class.RawRead, ptr %9, i32 0, i32 0
  %33 = getelementptr inbounds nuw %class.RawRead, ptr %9, i32 0, i32 3
  %34 = load i64, ptr %33, align 8, !tbaa !17
  %35 = call noundef nonnull align 1 dereferenceable(1) ptr @_ZNK5ArrayIhEixEm(ptr noundef nonnull align 8 dereferenceable(32) %32, i64 noundef %34)
  %36 = load i64, ptr %8, align 8, !tbaa !23
  call void @llvm.memcpy.p0.p0.i64(ptr align 1 %31, ptr align 1 %35, i64 %36, i1 false)
  br label %37

37:                                               ; preds = %30, %26
  %38 = load i64, ptr %6, align 8, !tbaa !23
  %39 = load i64, ptr %8, align 8, !tbaa !23
  %40 = icmp ugt i64 %38, %39
  br i1 %40, label %41, label %48

41:                                               ; preds = %37
  %42 = load ptr, ptr %7, align 8, !tbaa !28
  %43 = load i64, ptr %8, align 8, !tbaa !23
  %44 = getelementptr inbounds nuw i8, ptr %42, i64 %43
  %45 = load i64, ptr %6, align 8, !tbaa !23
  %46 = load i64, ptr %8, align 8, !tbaa !23
  %47 = sub i64 %45, %46
  call void @llvm.memset.p0.i64(ptr align 1 %44, i8 0, i64 %47, i1 false)
  br label %48

48:                                               ; preds = %41, %37
  %49 = load i64, ptr %8, align 8, !tbaa !23
  %50 = getelementptr inbounds nuw %class.RawRead, ptr %9, i32 0, i32 3
  %51 = load i64, ptr %50, align 8, !tbaa !17
  %52 = add i64 %51, %49
  store i64 %52, ptr %50, align 8, !tbaa !17
  %53 = load i64, ptr %8, align 8, !tbaa !23
  call void @llvm.lifetime.end.p0(i64 8, ptr %8) #9
  call void @llvm.lifetime.end.p0(i64 8, ptr %7) #9
  ret i64 %53
}