; Function Attrs: mustprogress nofree norecurse nosync nounwind willreturn memory(readwrite, inaccessiblemem: none) uwtable
define noundef i64 @_ZN7RawRead4GetBEPvm(ptr noundef nonnull align 8 captures(none) dereferenceable(64) %0, ptr noundef writeonly captures(none) %1, i64 noundef %2) local_unnamed_addr #7 align 2 {
  %4 = getelementptr inbounds nuw i8, ptr %0, i64 40
  %5 = load i64, ptr %4, align 8, !tbaa !15
  %6 = getelementptr inbounds nuw i8, ptr %0, i64 48
  %7 = load i64, ptr %6, align 8, !tbaa !21
  %8 = sub i64 %5, %7
  %9 = icmp ult i64 %8, %2
  %. = tail call i64 @llvm.umin.i64(i64 %8, i64 %2)
  %.not = icmp eq i64 %., 0
  br i1 %.not, label %13, label %10

10:                                               ; preds = %3
  %11 = load ptr, ptr %0, align 8, !tbaa !17
  %12 = getelementptr inbounds nuw i8, ptr %11, i64 %7
  tail call void @llvm.memcpy.p0.p0.i64(ptr align 1 %1, ptr nonnull align 1 %12, i64 %., i1 false)
  br label %13

13:                                               ; preds = %10, %3
  br i1 %9, label %14, label %17

14:                                               ; preds = %13
  %15 = getelementptr inbounds nuw i8, ptr %1, i64 %8
  %16 = sub nuw i64 %2, %8
  tail call void @llvm.memset.p0.i64(ptr align 1 %15, i8 0, i64 %16, i1 false)
  br label %17

17:                                               ; preds = %14, %13
  %18 = load i64, ptr %6, align 8, !tbaa !21
  %19 = add i64 %18, %.
  store i64 %19, ptr %6, align 8, !tbaa !21
  ret i64 %.
}